; Function Attrs: nounwind uwtable
define noalias noundef ptr @Mio_SopCoverOr(ptr noundef readonly captures(none) %0, ptr noundef readonly captures(none) %1) local_unnamed_addr #0 {
  %3 = getelementptr i8, ptr %0, i64 4
  %.val20 = load i32, ptr %3, align 4, !tbaa !3
  %4 = getelementptr i8, ptr %1, i64 4
  %.val19 = load i32, ptr %4, align 4, !tbaa !3
  %5 = add nsw i32 %.val19, %.val20
  %6 = tail call noalias dereferenceable_or_null(16) ptr @malloc(i64 noundef 16) #6
  %7 = add i32 %5, -1
  %or.cond.i = icmp ult i32 %7, 15
  %spec.store.select.i = select i1 %or.cond.i, i32 16, i32 %5
  %8 = getelementptr inbounds nuw i8, ptr %6, i64 4
  store i32 0, ptr %8, align 4, !tbaa !3
  store i32 %spec.store.select.i, ptr %6, align 8, !tbaa !14
  %.not.i = icmp eq i32 %spec.store.select.i, 0
  br i1 %.not.i, label %Vec_IntAlloc.exit, label %9

9:                                                ; preds = %2
  %10 = sext i32 %spec.store.select.i to i64
  %11 = shl nsw i64 %10, 2
  %12 = tail call noalias ptr @malloc(i64 noundef %11) #6
  br label %Vec_IntAlloc.exit

Vec_IntAlloc.exit:                                ; preds = %2, %9
  %13 = phi ptr [ %12, %9 ], [ null, %2 ]
  %14 = getelementptr inbounds nuw i8, ptr %6, i64 8
  store ptr %13, ptr %14, align 8, !tbaa !10
  %15 = icmp sgt i32 %.val20, 0
  br i1 %15, label %.lr.ph, label %.critedge.preheader

.lr.ph:                                           ; preds = %Vec_IntAlloc.exit
  %16 = getelementptr i8, ptr %0, i64 8
  br label %19

.critedge.preheader.loopexit:                     ; preds = %Vec_IntPush.exit
  %.val25.pre = load i32, ptr %4, align 4, !tbaa !3
  br label %.critedge.preheader

.critedge.preheader:                              ; preds = %.critedge.preheader.loopexit, %Vec_IntAlloc.exit
  %.val25 = phi i32 [ %.val25.pre, %.critedge.preheader.loopexit ], [ %.val19, %Vec_IntAlloc.exit ]
  %17 = icmp sgt i32 %.val25, 0
  br i1 %17, label %.lr.ph27, label %.critedge2

.lr.ph27:                                         ; preds = %.critedge.preheader
  %18 = getelementptr i8, ptr %1, i64 8
  br label %.critedge

19:                                               ; preds = %.lr.ph, %Vec_IntPush.exit
  %20 = phi ptr [ %13, %.lr.ph ], [ %.pre.i33, %Vec_IntPush.exit ]
  %indvars.iv = phi i64 [ 0, %.lr.ph ], [ %indvars.iv.next, %Vec_IntPush.exit ]
  %.val22 = load ptr, ptr %16, align 8, !tbaa !10
  %21 = getelementptr inbounds nuw i32, ptr %.val22, i64 %indvars.iv
  %22 = load i32, ptr %21, align 4, !tbaa !11
  %23 = load i32, ptr %8, align 4, !tbaa !3
  %24 = load i32, ptr %6, align 8, !tbaa !14
  %25 = icmp eq i32 %23, %24
  br i1 %25, label %26, label %Vec_IntPush.exit

26:                                               ; preds = %19
  %27 = icmp slt i32 %23, 16
  br i1 %27, label %28, label %33

28:                                               ; preds = %26
  %.not9.i.i = icmp eq ptr %20, null
  br i1 %.not9.i.i, label %31, label %29

29:                                               ; preds = %28
  %30 = tail call dereferenceable_or_null(64) ptr @realloc(ptr noundef nonnull %20, i64 noundef 64) #5
  br label %Vec_IntPush.exit.sink.split

31:                                               ; preds = %28
  %32 = tail call noalias dereferenceable_or_null(64) ptr @malloc(i64 noundef 64) #6
  br label %Vec_IntPush.exit.sink.split

33:                                               ; preds = %26
  %34 = shl nuw nsw i32 %23, 1
  %.not9.i9.i = icmp eq ptr %20, null
  %35 = zext nneg i32 %34 to i64
  %36 = shl nuw nsw i64 %35, 2
  br i1 %.not9.i9.i, label %39, label %37

37:                                               ; preds = %33
  %38 = tail call ptr @realloc(ptr noundef nonnull %20, i64 noundef %36) #5
  br label %Vec_IntPush.exit.sink.split

39:                                               ; preds = %33
  %40 = tail call noalias ptr @malloc(i64 noundef %36) #6
  br label %Vec_IntPush.exit.sink.split

Vec_IntPush.exit.sink.split:                      ; preds = %37, %39, %29, %31
  %.sink35 = phi ptr [ %30, %29 ], [ %32, %31 ], [ %38, %37 ], [ %40, %39 ]
  %.sink = phi i32 [ 16, %29 ], [ 16, %31 ], [ %34, %37 ], [ %34, %39 ]
  store ptr %.sink35, ptr %14, align 8, !tbaa !10
  store i32 %.sink, ptr %6, align 8, !tbaa !14
  br label %Vec_IntPush.exit

Vec_IntPush.exit:                                 ; preds = %Vec_IntPush.exit.sink.split, %19
  %.pre.i33 = phi ptr [ %20, %19 ], [ %.sink35, %Vec_IntPush.exit.sink.split ]
  %41 = add nsw i32 %23, 1
  store i32 %41, ptr %8, align 4, !tbaa !3
  %42 = sext i32 %23 to i64
  %43 = getelementptr inbounds i32, ptr %.pre.i33, i64 %42
  store i32 %22, ptr %43, align 4, !tbaa !11
  %indvars.iv.next = add nuw nsw i64 %indvars.iv, 1
  %.val18 = load i32, ptr %3, align 4, !tbaa !3
  %44 = sext i32 %.val18 to i64
  %45 = icmp slt i64 %indvars.iv.next, %44
  br i1 %45, label %19, label %.critedge.preheader.loopexit, !llvm.loop !15

.critedge:                                        ; preds = %.lr.ph27, %.critedge
  %indvars.iv29 = phi i64 [ 0, %.lr.ph27 ], [ %indvars.iv.next30, %.critedge ]
  %.val21 = load ptr, ptr %18, align 8, !tbaa !10
  %46 = getelementptr inbounds nuw i32, ptr %.val21, i64 %indvars.iv29
  %47 = load i32, ptr %46, align 4, !tbaa !11
  tail call void @Mio_SopPushSCC(ptr noundef nonnull %6, i32 noundef %47)
  %indvars.iv.next30 = add nuw nsw i64 %indvars.iv29, 1
  %.val = load i32, ptr %4, align 4, !tbaa !3
  %48 = sext i32 %.val to i64
  %49 = icmp slt i64 %indvars.iv.next30, %48
  br i1 %49, label %.critedge, label %.critedge2, !llvm.loop !16

.critedge2:                                       ; preds = %.critedge, %.critedge.preheader
  ret ptr %6
}